target datalayout = "e-m:e-p270:32:32-p271:32:32-p272:64:64-i64:64-i128:128-f80:128-n8:16:32:64-S128"
target triple = "x86_64-pc-linux-gnu"

%"struct.duckdb_libpgquery::yyguts_t" = type { ptr, ptr, ptr, i64, i64, ptr, i8, i64, i64, ptr, i32, i32, i32, i32, i32, ptr, i32, ptr, i32, i32, ptr, i32, i32, ptr, ptr }

; Function Attrs: mustprogress nounwind uwtable
define internal noundef i32 @_ZN17duckdb_libpgqueryL15yy_init_globalsEPv(ptr noundef %0) #2 {
  %2 = alloca ptr, align 8
  %3 = alloca ptr, align 8
  store ptr %0, ptr %2, align 8, !tbaa !10
  call void @llvm.lifetime.start.p0(i64 8, ptr %3) #11
  %4 = load ptr, ptr %2, align 8, !tbaa !10
  store ptr %4, ptr %3, align 8, !tbaa !11
  %5 = load ptr, ptr %3, align 8, !tbaa !11
  %6 = getelementptr inbounds nuw %"struct.duckdb_libpgquery::yyguts_t", ptr %5, i32 0, i32 5
  store ptr null, ptr %6, align 8, !tbaa !24
  %7 = load ptr, ptr %3, align 8, !tbaa !11
  %8 = getelementptr inbounds nuw %"struct.duckdb_libpgquery::yyguts_t", ptr %7, i32 0, i32 3
  store i64 0, ptr %8, align 8, !tbaa !25
  %9 = load ptr, ptr %3, align 8, !tbaa !11
  %10 = getelementptr inbounds nuw %"struct.duckdb_libpgquery::yyguts_t", ptr %9, i32 0, i32 4
  store i64 0, ptr %10, align 8, !tbaa !75
  %11 = load ptr, ptr %3, align 8, !tbaa !11
  %12 = getelementptr inbounds nuw %"struct.duckdb_libpgquery::yyguts_t", ptr %11, i32 0, i32 9
  store ptr null, ptr %12, align 8, !tbaa !29
  %13 = load ptr, ptr %3, align 8, !tbaa !11
  %14 = getelementptr inbounds nuw %"struct.duckdb_libpgquery::yyguts_t", ptr %13, i32 0, i32 10
  store i32 0, ptr %14, align 8, !tbaa !22
  %15 = load ptr, ptr %3, align 8, !tbaa !11
  %16 = getelementptr inbounds nuw %"struct.duckdb_libpgquery::yyguts_t", ptr %15, i32 0, i32 11
  store i32 0, ptr %16, align 4, !tbaa !23
  %17 = load ptr, ptr %3, align 8, !tbaa !11
  %18 = getelementptr inbounds nuw %"struct.duckdb_libpgquery::yyguts_t", ptr %17, i32 0, i32 13
  store i32 0, ptr %18, align 4, !tbaa !102
  %19 = load ptr, ptr %3, align 8, !tbaa !11
  %20 = getelementptr inbounds nuw %"struct.duckdb_libpgquery::yyguts_t", ptr %19, i32 0, i32 14
  store i32 0, ptr %20, align 8, !tbaa !103
  %21 = load ptr, ptr %3, align 8, !tbaa !11
  %22 = getelementptr inbounds nuw %"struct.duckdb_libpgquery::yyguts_t", ptr %21, i32 0, i32 15
  store ptr null, ptr %22, align 8, !tbaa !104
  %23 = load ptr, ptr %3, align 8, !tbaa !11
  %24 = getelementptr inbounds nuw %"struct.duckdb_libpgquery::yyguts_t", ptr %23, i32 0, i32 1
  store ptr null, ptr %24, align 8, !tbaa !28
  %25 = load ptr, ptr %3, align 8, !tbaa !11
  %26 = getelementptr inbounds nuw %"struct.duckdb_libpgquery::yyguts_t", ptr %25, i32 0, i32 2
  store ptr null, ptr %26, align 8, !tbaa !99
  call void @llvm.lifetime.end.p0(i64 8, ptr %3) #11
  ret i32 0
}

; Function Attrs: mustprogress uwtable
define hidden noundef ptr @_ZN17duckdb_libpgquery12core_yyallocEmPv(i64 noundef %0, ptr noundef %1) #0 {
  %3 = alloca i64, align 8
  %4 = alloca ptr, align 8
  store i64 %0, ptr %3, align 8, !tbaa !74
  store ptr %1, ptr %4, align 8, !tbaa !10
  %5 = load i64, ptr %3, align 8, !tbaa !74
  %6 = call noundef ptr @_ZN17duckdb_libpgquery6pallocEm(i64 noundef %5)
  ret ptr %6
}

; Function Attrs: mustprogress uwtable
define hidden noundef i32 @_ZN17duckdb_libpgquery15core_yylex_initEPPv(ptr noundef %0) #0 {
  %2 = alloca i32, align 4
  %3 = alloca ptr, align 8
  store ptr %0, ptr %3, align 8, !tbaa !10
  %4 = load ptr, ptr %3, align 8, !tbaa !10
  %5 = icmp eq ptr %4, null
  br i1 %5, label %6, label %8

6:                                                ; preds = %1
  %7 = call ptr @__errno_location() #14
  store i32 22, ptr %7, align 4, !tbaa !33
  store i32 1, ptr %2, align 4
  br label %22

8:                                                ; preds = %1
  %9 = call noundef ptr @_ZN17duckdb_libpgquery12core_yyallocEmPv(i64 noundef 168, ptr noundef null)
  %10 = load ptr, ptr %3, align 8, !tbaa !10
  store ptr %9, ptr %10, align 8, !tbaa !10
  %11 = load ptr, ptr %3, align 8, !tbaa !10
  %12 = load ptr, ptr %11, align 8, !tbaa !10
  %13 = icmp eq ptr %12, null
  br i1 %13, label %14, label %16

14:                                               ; preds = %8
  %15 = call ptr @__errno_location() #14
  store i32 12, ptr %15, align 4, !tbaa !33
  store i32 1, ptr %2, align 4
  br label %22

16:                                               ; preds = %8
  %17 = load ptr, ptr %3, align 8, !tbaa !10
  %18 = load ptr, ptr %17, align 8, !tbaa !10
  call void @llvm.memset.p0.i64(ptr align 1 %18, i8 0, i64 168, i1 false)
  %19 = load ptr, ptr %3, align 8, !tbaa !10
  %20 = load ptr, ptr %19, align 8, !tbaa !10
  %21 = call noundef i32 @_ZN17duckdb_libpgqueryL15yy_init_globalsEPv(ptr noundef %20)
  store i32 %21, ptr %2, align 4
  br label %22

22:                                               ; preds = %16, %14, %6
  %23 = load i32, ptr %2, align 4
  ret i32 %23
}